target datalayout = "e-m:e-p270:32:32-p271:32:32-p272:64:64-i64:64-i128:128-f80:128-n8:16:32:64-S128"
target triple = "x86_64-pc-linux-gnu"

%struct.vec = type { double, double, double }
%class.Model = type { %"class.std::vector", %"class.std::vector", %"class.std::vector.3", %"class.std::vector.8", %"class.std::vector.8", %"class.std::vector.8", %struct.TGAImage, %struct.TGAImage, %struct.TGAImage }
%"class.std::vector" = type { %"struct.std::_Vector_base" }
%"struct.std::_Vector_base" = type { %"struct.std::_Vector_base<vec<3>, std::allocator<vec<3>>>::_Vector_impl" }
%"struct.std::_Vector_base<vec<3>, std::allocator<vec<3>>>::_Vector_impl" = type { %"struct.std::_Vector_base<vec<3>, std::allocator<vec<3>>>::_Vector_impl_data" }
%"struct.std::_Vector_base<vec<3>, std::allocator<vec<3>>>::_Vector_impl_data" = type { ptr, ptr, ptr }
%"class.std::vector.3" = type { %"struct.std::_Vector_base.4" }
%"struct.std::_Vector_base.4" = type { %"struct.std::_Vector_base<vec<2>, std::allocator<vec<2>>>::_Vector_impl" }
%"struct.std::_Vector_base<vec<2>, std::allocator<vec<2>>>::_Vector_impl" = type { %"struct.std::_Vector_base<vec<2>, std::allocator<vec<2>>>::_Vector_impl_data" }
%"struct.std::_Vector_base<vec<2>, std::allocator<vec<2>>>::_Vector_impl_data" = type { ptr, ptr, ptr }
%"class.std::vector.8" = type { %"struct.std::_Vector_base.9" }
%"struct.std::_Vector_base.9" = type { %"struct.std::_Vector_base<int, std::allocator<int>>::_Vector_impl" }
%"struct.std::_Vector_base<int, std::allocator<int>>::_Vector_impl" = type { %"struct.std::_Vector_base<int, std::allocator<int>>::_Vector_impl_data" }
%"struct.std::_Vector_base<int, std::allocator<int>>::_Vector_impl_data" = type { ptr, ptr, ptr }
%struct.TGAImage = type { i32, i32, i8, %"class.std::vector.13" }
%"class.std::vector.13" = type { %"struct.std::_Vector_base.14" }
%"struct.std::_Vector_base.14" = type { %"struct.std::_Vector_base<unsigned char, std::allocator<unsigned char>>::_Vector_impl" }
%"struct.std::_Vector_base<unsigned char, std::allocator<unsigned char>>::_Vector_impl" = type { %"struct.std::_Vector_base<unsigned char, std::allocator<unsigned char>>::_Vector_impl_data" }
%"struct.std::_Vector_base<unsigned char, std::allocator<unsigned char>>::_Vector_impl_data" = type { ptr, ptr, ptr }

; Function Attrs: mustprogress nounwind uwtable
define linkonce_odr dso_local noundef nonnull align 8 dereferenceable(24) ptr @_ZNKSt6vectorI3vecILi3EESaIS1_EEixEm(ptr noundef nonnull align 8 dereferenceable(24) %0, i64 noundef %1) #6 comdat align 2 {
  %3 = alloca ptr, align 8
  %4 = alloca i64, align 8
  store ptr %0, ptr %3, align 8, !tbaa !31
  store i64 %1, ptr %4, align 8, !tbaa !61
  %5 = load ptr, ptr %3, align 8
  %6 = getelementptr inbounds nuw %"struct.std::_Vector_base", ptr %5, i32 0, i32 0
  %7 = getelementptr inbounds nuw %"struct.std::_Vector_base<vec<3>, std::allocator<vec<3>>>::_Vector_impl_data", ptr %6, i32 0, i32 0
  %8 = load ptr, ptr %7, align 8, !tbaa !85
  %9 = load i64, ptr %4, align 8, !tbaa !61
  %10 = getelementptr inbounds nuw %struct.vec, ptr %8, i64 %9
  ret ptr %10
}

; Function Attrs: mustprogress nounwind uwtable
define linkonce_odr dso_local noundef nonnull align 4 dereferenceable(4) ptr @_ZNKSt6vectorIiSaIiEEixEm(ptr noundef nonnull align 8 dereferenceable(24) %0, i64 noundef %1) #6 comdat align 2 {
  %3 = alloca ptr, align 8
  %4 = alloca i64, align 8
  store ptr %0, ptr %3, align 8, !tbaa !35
  store i64 %1, ptr %4, align 8, !tbaa !61
  %5 = load ptr, ptr %3, align 8
  %6 = getelementptr inbounds nuw %"struct.std::_Vector_base.9", ptr %5, i32 0, i32 0
  %7 = getelementptr inbounds nuw %"struct.std::_Vector_base<int, std::allocator<int>>::_Vector_impl_data", ptr %6, i32 0, i32 0
  %8 = load ptr, ptr %7, align 8, !tbaa !88
  %9 = load i64, ptr %4, align 8, !tbaa !61
  %10 = getelementptr inbounds nuw i32, ptr %8, i64 %9
  ret ptr %10
}

; Function Attrs: mustprogress nounwind uwtable
define dso_local void @_ZNK5Model4vertEii(ptr dead_on_unwind noalias writable sret(%struct.vec) align 8 %0, ptr noundef nonnull align 8 dereferenceable(264) %1, i32 noundef %2, i32 noundef %3) #6 align 2 {
  %5 = alloca ptr, align 8
  %6 = alloca i32, align 4
  %7 = alloca i32, align 4
  store ptr %1, ptr %5, align 8, !tbaa !5
  store i32 %2, ptr %6, align 4, !tbaa !14
  store i32 %3, ptr %7, align 4, !tbaa !14
  %8 = load ptr, ptr %5, align 8
  %9 = getelementptr inbounds nuw %class.Model, ptr %8, i32 0, i32 0
  %10 = getelementptr inbounds nuw %class.Model, ptr %8, i32 0, i32 3
  %11 = load i32, ptr %6, align 4, !tbaa !14
  %12 = mul nsw i32 %11, 3
  %13 = load i32, ptr %7, align 4, !tbaa !14
  %14 = add nsw i32 %12, %13
  %15 = sext i32 %14 to i64
  %16 = call noundef nonnull align 4 dereferenceable(4) ptr @_ZNKSt6vectorIiSaIiEEixEm(ptr noundef nonnull align 8 dereferenceable(24) %10, i64 noundef %15) #3
  %17 = load i32, ptr %16, align 4, !tbaa !14
  %18 = sext i32 %17 to i64
  %19 = call noundef nonnull align 8 dereferenceable(24) ptr @_ZNKSt6vectorI3vecILi3EESaIS1_EEixEm(ptr noundef nonnull align 8 dereferenceable(24) %9, i64 noundef %18) #3
  call void @llvm.memcpy.p0.p0.i64(ptr align 8 %0, ptr align 8 %19, i64 24, i1 false), !tbaa.struct !203
  ret void
}