; Function Attrs: mustprogress nofree norecurse nosync nounwind willreturn memory(readwrite, inaccessiblemem: none) uwtable
define dso_local void @_ZNK5Model4vertEii(ptr dead_on_unwind noalias writable writeonly sret(%struct.vec) align 8 captures(none) initializes((0, 24)) %0, ptr noundef nonnull readonly align 8 captures(none) dereferenceable(264) %1, i32 noundef %2, i32 noundef %3) local_unnamed_addr #17 align 2 {
  %5 = getelementptr inbounds nuw i8, ptr %1, i64 72
  %6 = mul nsw i32 %2, 3
  %7 = add nsw i32 %6, %3
  %8 = sext i32 %7 to i64
  %9 = load ptr, ptr %5, align 8, !tbaa !87
  %10 = getelementptr inbounds nuw i32, ptr %9, i64 %8
  %11 = load i32, ptr %10, align 4, !tbaa !43
  %12 = sext i32 %11 to i64
  %13 = load ptr, ptr %1, align 8, !tbaa !51
  %14 = getelementptr inbounds nuw %struct.vec, ptr %13, i64 %12
  tail call void @llvm.memcpy.p0.p0.i64(ptr noundef nonnull align 8 dereferenceable(24) %0, ptr noundef nonnull align 8 dereferenceable(24) %14, i64 24, i1 false), !tbaa.struct !48
  ret void
}